target datalayout = "e-m:e-p270:32:32-p271:32:32-p272:64:64-i64:64-i128:128-f80:128-n8:16:32:64-S128"
target triple = "x86_64-pc-linux-gnu"

@verbose = internal global i32 0, align 4
@bio_err = external global ptr, align 8
@select_name = internal global ptr null, align 8
@bio_out = external global ptr, align 8
@.str.99 = private unnamed_addr constant [26 x i8] c"ERROR: Memory allocation\0A\00", align 1
@.str.102 = private unnamed_addr constant [3 x i8] c"  \00", align 1
@.str.104 = private unnamed_addr constant [21 x i8] c"    description: %s\0A\00", align 1
@.str.107 = private unnamed_addr constant [30 x i8] c"settable operation parameters\00", align 1
@.str.120 = private unnamed_addr constant [12 x i8] c" @ %s (%s)\0A\00", align 1
@.str.121 = private unnamed_addr constant [20 x i8] c"Provided DECODERs:\0A\00", align 1

; Function Attrs: inlinehint nounwind uwtable
define internal void @sk_OSSL_DECODER_pop_free(ptr noundef %0, ptr noundef %1) #5 {
  %3 = alloca ptr, align 8
  %4 = alloca ptr, align 8
  store ptr %0, ptr %3, align 8, !tbaa !87
  store ptr %1, ptr %4, align 8, !tbaa !123
  %5 = load ptr, ptr %3, align 8, !tbaa !87
  %6 = load ptr, ptr %4, align 8, !tbaa !123
  call void @OPENSSL_sk_pop_free(ptr noundef %5, ptr noundef %6)
  ret void
}

; Function Attrs: inlinehint nounwind uwtable
define internal ptr @ossl_check_OPENSSL_CSTRING_sk_type(ptr noundef %0) #5 {
  %2 = alloca ptr, align 8
  store ptr %0, ptr %2, align 8, !tbaa !39
  %3 = load ptr, ptr %2, align 8, !tbaa !39
  ret ptr %3
}

; Function Attrs: inlinehint nounwind uwtable
define internal ptr @ossl_check_OPENSSL_CSTRING_compfunc_type(ptr noundef %0) #5 {
  %2 = alloca ptr, align 8
  store ptr %0, ptr %2, align 8, !tbaa !123
  %3 = load ptr, ptr %2, align 8, !tbaa !123
  ret ptr %3
}

; Function Attrs: inlinehint nounwind uwtable
define internal ptr @sk_OSSL_DECODER_value(ptr noundef %0, i32 noundef %1) #5 {
  %3 = alloca ptr, align 8
  %4 = alloca i32, align 4
  store ptr %0, ptr %3, align 8, !tbaa !87
  store i32 %1, ptr %4, align 4, !tbaa !4
  %5 = load ptr, ptr %3, align 8, !tbaa !87
  %6 = load i32, ptr %4, align 4, !tbaa !4
  %7 = call ptr @OPENSSL_sk_value(ptr noundef %5, i32 noundef %6)
  ret ptr %7
}

; Function Attrs: inlinehint nounwind uwtable
define internal i32 @sk_OSSL_DECODER_num(ptr noundef %0) #5 {
  %2 = alloca ptr, align 8
  store ptr %0, ptr %2, align 8, !tbaa !87
  %3 = load ptr, ptr %2, align 8, !tbaa !87
  %4 = call i32 @OPENSSL_sk_num(ptr noundef %3)
  ret i32 %4
}

; Function Attrs: inlinehint nounwind uwtable
define internal void @sk_OSSL_DECODER_sort(ptr noundef %0) #5 {
  %2 = alloca ptr, align 8
  store ptr %0, ptr %2, align 8, !tbaa !87
  %3 = load ptr, ptr %2, align 8, !tbaa !87
  call void @OPENSSL_sk_sort(ptr noundef %3)
  ret void
}

; Function Attrs: inlinehint nounwind uwtable
define internal ptr @sk_OSSL_DECODER_new(ptr noundef %0) #5 {
  %2 = alloca ptr, align 8
  store ptr %0, ptr %2, align 8, !tbaa !123
  %3 = load ptr, ptr %2, align 8, !tbaa !123
  %4 = call ptr @OPENSSL_sk_new(ptr noundef %3)
  ret ptr %4
}

; Function Attrs: nounwind uwtable
define internal void @list_decoders() #0 {
  %1 = alloca ptr, align 8
  %2 = alloca i32, align 4
  %3 = alloca i32, align 4
  %4 = alloca ptr, align 8
  %5 = alloca ptr, align 8
  %6 = alloca ptr, align 8
  call void @llvm.lifetime.start.p0(i64 8, ptr %1) #7
  call void @llvm.lifetime.start.p0(i64 4, ptr %2) #7
  %7 = call ptr @sk_OSSL_DECODER_new(ptr noundef @decoder_cmp)
  store ptr %7, ptr %1, align 8, !tbaa !87
  %8 = load ptr, ptr %1, align 8, !tbaa !87
  %9 = icmp eq ptr %8, null
  br i1 %9, label %10, label %13

10:                                               ; preds = %0
  %11 = load ptr, ptr @bio_err, align 8, !tbaa !13
  %12 = call i32 (ptr, ptr, ...) @BIO_printf(ptr noundef %11, ptr noundef @.str.99)
  store i32 1, ptr %3, align 4
  br label %85

13:                                               ; preds = %0
  %14 = load ptr, ptr @bio_out, align 8, !tbaa !13
  %15 = call i32 (ptr, ptr, ...) @BIO_printf(ptr noundef %14, ptr noundef @.str.121)
  %16 = call ptr @app_get0_libctx()
  %17 = load ptr, ptr %1, align 8, !tbaa !87
  call void @OSSL_DECODER_do_all_provided(ptr noundef %16, ptr noundef @collect_decoders, ptr noundef %17)
  %18 = load ptr, ptr %1, align 8, !tbaa !87
  call void @sk_OSSL_DECODER_sort(ptr noundef %18)
  store i32 0, ptr %2, align 4, !tbaa !4
  br label %19

19:                                               ; preds = %80, %13
  %20 = load i32, ptr %2, align 4, !tbaa !4
  %21 = load ptr, ptr %1, align 8, !tbaa !87
  %22 = call i32 @sk_OSSL_DECODER_num(ptr noundef %21)
  %23 = icmp slt i32 %20, %22
  br i1 %23, label %24, label %83

24:                                               ; preds = %19
  call void @llvm.lifetime.start.p0(i64 8, ptr %4) #7
  %25 = load ptr, ptr %1, align 8, !tbaa !87
  %26 = load i32, ptr %2, align 4, !tbaa !4
  %27 = call ptr @sk_OSSL_DECODER_value(ptr noundef %25, i32 noundef %26)
  store ptr %27, ptr %4, align 8, !tbaa !89
  call void @llvm.lifetime.start.p0(i64 8, ptr %5) #7
  store ptr null, ptr %5, align 8, !tbaa !39
  %28 = load ptr, ptr @select_name, align 8, !tbaa !11
  %29 = icmp ne ptr %28, null
  br i1 %29, label %30, label %36

30:                                               ; preds = %24
  %31 = load ptr, ptr %4, align 8, !tbaa !89
  %32 = load ptr, ptr @select_name, align 8, !tbaa !11
  %33 = call i32 @OSSL_DECODER_is_a(ptr noundef %31, ptr noundef %32)
  %34 = icmp ne i32 %33, 0
  br i1 %34, label %36, label %35

35:                                               ; preds = %30
  store i32 4, ptr %3, align 4
  br label %77

36:                                               ; preds = %30, %24
  %37 = call ptr @ossl_check_OPENSSL_CSTRING_compfunc_type(ptr noundef @name_cmp)
  %38 = call ptr @OPENSSL_sk_new(ptr noundef %37)
  store ptr %38, ptr %5, align 8, !tbaa !39
  %39 = load ptr, ptr %5, align 8, !tbaa !39
  %40 = icmp ne ptr %39, null
  br i1 %40, label %41, label %74

41:                                               ; preds = %36
  %42 = load ptr, ptr %4, align 8, !tbaa !89
  %43 = load ptr, ptr %5, align 8, !tbaa !39
  %44 = call i32 @OSSL_DECODER_names_do_all(ptr noundef %42, ptr noundef @collect_names, ptr noundef %43)
  %45 = icmp ne i32 %44, 0
  br i1 %45, label %46, label %74

46:                                               ; preds = %41
  %47 = load ptr, ptr @bio_out, align 8, !tbaa !13
  %48 = call i32 (ptr, ptr, ...) @BIO_printf(ptr noundef %47, ptr noundef @.str.102)
  %49 = load ptr, ptr @bio_out, align 8, !tbaa !13
  %50 = load ptr, ptr %5, align 8, !tbaa !39
  call void @print_names(ptr noundef %49, ptr noundef %50)
  %51 = load ptr, ptr @bio_out, align 8, !tbaa !13
  %52 = load ptr, ptr %4, align 8, !tbaa !89
  %53 = call ptr @OSSL_DECODER_get0_provider(ptr noundef %52)
  %54 = call ptr @OSSL_PROVIDER_get0_name(ptr noundef %53)
  %55 = load ptr, ptr %4, align 8, !tbaa !89
  %56 = call ptr @OSSL_DECODER_get0_properties(ptr noundef %55)
  %57 = call i32 (ptr, ptr, ...) @BIO_printf(ptr noundef %51, ptr noundef @.str.120, ptr noundef %54, ptr noundef %56)
  %58 = load i32, ptr @verbose, align 4, !tbaa !4
  %59 = icmp ne i32 %58, 0
  br i1 %59, label %60, label %73

60:                                               ; preds = %46
  call void @llvm.lifetime.start.p0(i64 8, ptr %6) #7
  %61 = load ptr, ptr %4, align 8, !tbaa !89
  %62 = call ptr @OSSL_DECODER_get0_description(ptr noundef %61)
  store ptr %62, ptr %6, align 8, !tbaa !11
  %63 = load ptr, ptr %6, align 8, !tbaa !11
  %64 = icmp ne ptr %63, null
  br i1 %64, label %65, label %69

65:                                               ; preds = %60
  %66 = load ptr, ptr @bio_out, align 8, !tbaa !13
  %67 = load ptr, ptr %6, align 8, !tbaa !11
  %68 = call i32 (ptr, ptr, ...) @BIO_printf(ptr noundef %66, ptr noundef @.str.104, ptr noundef %67)
  br label %69

69:                                               ; preds = %65, %60
  %70 = load ptr, ptr %4, align 8, !tbaa !89
  %71 = call ptr @OSSL_DECODER_settable_ctx_params(ptr noundef %70)
  %72 = call i32 @print_param_types(ptr noundef @.str.107, ptr noundef %71, i32 noundef 4)
  call void @llvm.lifetime.end.p0(i64 8, ptr %6) #7
  br label %73

73:                                               ; preds = %69, %46
  br label %74

74:                                               ; preds = %73, %41, %36
  %75 = load ptr, ptr %5, align 8, !tbaa !39
  %76 = call ptr @ossl_check_OPENSSL_CSTRING_sk_type(ptr noundef %75)
  call void @OPENSSL_sk_free(ptr noundef %76)
  store i32 0, ptr %3, align 4
  br label %77

77:                                               ; preds = %74, %35
  call void @llvm.lifetime.end.p0(i64 8, ptr %5) #7
  call void @llvm.lifetime.end.p0(i64 8, ptr %4) #7
  %78 = load i32, ptr %3, align 4
  switch i32 %78, label %88 [
    i32 0, label %79
    i32 4, label %80
  ]

79:                                               ; preds = %77
  br label %80

80:                                               ; preds = %79, %77
  %81 = load i32, ptr %2, align 4, !tbaa !4
  %82 = add nsw i32 %81, 1
  store i32 %82, ptr %2, align 4, !tbaa !4
  br label %19, !llvm.loop !91

83:                                               ; preds = %19
  %84 = load ptr, ptr %1, align 8, !tbaa !87
  call void @sk_OSSL_DECODER_pop_free(ptr noundef %84, ptr noundef @OSSL_DECODER_free)
  store i32 0, ptr %3, align 4
  br label %85

85:                                               ; preds = %83, %10
  call void @llvm.lifetime.end.p0(i64 4, ptr %2) #7
  call void @llvm.lifetime.end.p0(i64 8, ptr %1) #7
  %86 = load i32, ptr %3, align 4
  switch i32 %86, label %88 [
    i32 0, label %87
    i32 1, label %87
  ]

87:                                               ; preds = %85, %85
  ret void

88:                                               ; preds = %85, %77
  unreachable
}